target datalayout = "e-m:e-p270:32:32-p271:32:32-p272:64:64-i64:64-i128:128-f80:128-n8:16:32:64-S128"
target triple = "x86_64-pc-linux-gnu"

@hf_ieee80211_s1g_raw_control = internal global i32 0, align 4
@hf_ieee80211_s1g_raw_slot_def = internal global i32 0, align 4
@hf_ieee80211_s1g_raw_start_time = internal global i32 0, align 4
@hf_ieee80211_s1g_raw_group_subfield = internal global i32 0, align 4
@hf_ieee80211_s1g_raw_channel_indication = internal global i32 0, align 4
@hf_ieee80211_s1g_raw_praw_periodicity = internal global i32 0, align 4
@hf_ieee80211_s1g_raw_praw_validity = internal global i32 0, align 4
@hf_ieee80211_s1g_raw_praw_start_offset = internal global i32 0, align 4
@ett_s1g_raw_assignment = internal global i32 0, align 4
@ett_s1g_raw_assn_tree = internal global i32 0, align 4
@ett_s1g_raw_control = internal global i32 0, align 4
@ett_s1g_raw_slot_def = internal global i32 0, align 4
@ett_s1g_raw_group_subfield = internal global i32 0, align 4
@ett_s1g_raw_channel_indication = internal global i32 0, align 4
@global_s1g_raw_type = internal global i8 0, align 1
@.str.10026 = private unnamed_addr constant [16 x i8] c"RAW assignments\00", align 1
@.str.10027 = private unnamed_addr constant [14 x i8] c"Assignment %d\00", align 1
@s1g_slot_def_8_bit = internal constant [5 x ptr] [ptr @hf_ieee80211_s1g_slot_def_format_indication, ptr @hf_ieee80211_s1g_slot_def_cross_slot_boundary, ptr @hf_ieee80211_s1g_slot_def_slot_duration_count8, ptr @hf_ieee80211_s1g_slot_def_num_slots6, ptr null], align 16
@s1g_slot_def_11_bit = internal constant [5 x ptr] [ptr @hf_ieee80211_s1g_slot_def_format_indication, ptr @hf_ieee80211_s1g_slot_def_cross_slot_boundary, ptr @hf_ieee80211_s1g_slot_def_slot_duration_count11, ptr @hf_ieee80211_s1g_slot_def_num_slots3, ptr null], align 16
@.str.10028 = private unnamed_addr constant [41 x i8] c": All STAs allowed access within the RAW\00", align 1
@s1g_raw_group_fields = internal constant [4 x ptr] [ptr @hf_ieee80211_s1g_raw_group_page_index, ptr @hf_ieee80211_s1g_raw_group_start_aid, ptr @hf_ieee80211_s1g_raw_group_end_aid, ptr null], align 16

; Function Attrs: null_pointer_is_valid sspstrong uwtable
define internal i32 @dissect_rps(ptr noundef %0, ptr noundef %1, ptr noundef %2, ptr noundef %3) #1 {
  %5 = alloca ptr, align 8
  %6 = alloca ptr, align 8
  %7 = alloca ptr, align 8
  %8 = alloca ptr, align 8
  %9 = alloca ptr, align 8
  %10 = alloca ptr, align 8
  %11 = alloca ptr, align 8
  %12 = alloca i32, align 4
  %13 = alloca i32, align 4
  %14 = alloca i8, align 1
  %15 = alloca i8, align 1
  %16 = alloca i8, align 1
  %17 = alloca i32, align 4
  %18 = alloca ptr, align 8
  store ptr %0, ptr %5, align 8
  store ptr %1, ptr %6, align 8
  store ptr %2, ptr %7, align 8
  store ptr %3, ptr %8, align 8
  call void @llvm.lifetime.start.p0(i64 8, ptr %9) #19
  call void @llvm.lifetime.start.p0(i64 8, ptr %10) #19
  call void @llvm.lifetime.start.p0(i64 8, ptr %11) #19
  call void @llvm.lifetime.start.p0(i64 4, ptr %12) #19
  store i32 0, ptr %12, align 4
  call void @llvm.lifetime.start.p0(i64 4, ptr %13) #19
  store i32 0, ptr %13, align 4
  call void @llvm.lifetime.start.p0(i64 1, ptr %14) #19
  %19 = load ptr, ptr %5, align 8
  %20 = load i32, ptr %12, align 4
  %21 = call i32 @tvb_reported_length_remaining(ptr noundef %19, i32 noundef %20)
  %22 = trunc i32 %21 to i8
  store i8 %22, ptr %14, align 1
  %23 = load ptr, ptr %7, align 8
  %24 = load ptr, ptr %5, align 8
  %25 = load i32, ptr %12, align 4
  %26 = load i8, ptr %14, align 1
  %27 = zext i8 %26 to i32
  %28 = load i32, ptr @ett_s1g_raw_assignment, align 4
  %29 = call ptr @proto_tree_add_subtree(ptr noundef %23, ptr noundef %24, i32 noundef %25, i32 noundef %27, i32 noundef %28, ptr noundef null, ptr noundef @.str.10026)
  store ptr %29, ptr %9, align 8
  br label %30

30:                                               ; preds = %167, %4
  %31 = load ptr, ptr %5, align 8
  %32 = load i32, ptr %12, align 4
  %33 = call i32 @tvb_reported_length_remaining(ptr noundef %31, i32 noundef %32)
  %34 = icmp sgt i32 %33, 0
  br i1 %34, label %35, label %170

35:                                               ; preds = %30
  %36 = load ptr, ptr %9, align 8
  %37 = load ptr, ptr %5, align 8
  %38 = load i32, ptr %12, align 4
  %39 = load i32, ptr @ett_s1g_raw_assn_tree, align 4
  %40 = load i32, ptr %13, align 4
  %41 = call ptr (ptr, ptr, i32, i32, i32, ptr, ptr, ...) @proto_tree_add_subtree_format(ptr noundef %36, ptr noundef %37, i32 noundef %38, i32 noundef -1, i32 noundef %39, ptr noundef %11, ptr noundef @.str.10027, i32 noundef %40)
  store ptr %41, ptr %10, align 8
  call void @llvm.lifetime.start.p0(i64 1, ptr %15) #19
  %42 = load ptr, ptr %5, align 8
  %43 = load i32, ptr %12, align 4
  %44 = call zeroext i8 @tvb_get_uint8(ptr noundef %42, i32 noundef %43)
  store i8 %44, ptr %15, align 1
  call void @llvm.lifetime.start.p0(i64 1, ptr %16) #19
  %45 = load ptr, ptr %5, align 8
  %46 = load i32, ptr %12, align 4
  %47 = add i32 %46, 1
  %48 = call zeroext i8 @tvb_get_uint8(ptr noundef %45, i32 noundef %47)
  store i8 %48, ptr %16, align 1
  %49 = load i8, ptr %15, align 1
  %50 = zext i8 %49 to i32
  %51 = and i32 %50, 3
  %52 = trunc i32 %51 to i8
  store i8 %52, ptr @global_s1g_raw_type, align 1
  %53 = load ptr, ptr %10, align 8
  %54 = load ptr, ptr %5, align 8
  %55 = load i32, ptr %12, align 4
  %56 = load i32, ptr @hf_ieee80211_s1g_raw_control, align 4
  %57 = load i32, ptr @ett_s1g_raw_control, align 4
  %58 = call ptr @proto_tree_add_bitmask_with_flags(ptr noundef %53, ptr noundef %54, i32 noundef %55, i32 noundef %56, i32 noundef %57, ptr noundef @s1g_raw_control_headers, i32 noundef -2147483648, i32 noundef 1)
  %59 = load i32, ptr %12, align 4
  %60 = add i32 %59, 1
  store i32 %60, ptr %12, align 4
  %61 = load i8, ptr %16, align 1
  %62 = zext i8 %61 to i32
  %63 = and i32 %62, 1
  %64 = icmp eq i32 %63, 0
  br i1 %64, label %69, label %65

65:                                               ; preds = %35
  %66 = load i8, ptr @global_s1g_raw_type, align 1
  %67 = zext i8 %66 to i32
  %68 = icmp eq i32 %67, 1
  br i1 %68, label %69, label %76

69:                                               ; preds = %65, %35
  %70 = load ptr, ptr %10, align 8
  %71 = load ptr, ptr %5, align 8
  %72 = load i32, ptr %12, align 4
  %73 = load i32, ptr @hf_ieee80211_s1g_raw_slot_def, align 4
  %74 = load i32, ptr @ett_s1g_raw_slot_def, align 4
  %75 = call ptr @proto_tree_add_bitmask_with_flags(ptr noundef %70, ptr noundef %71, i32 noundef %72, i32 noundef %73, i32 noundef %74, ptr noundef @s1g_slot_def_8_bit, i32 noundef -2147483648, i32 noundef 1)
  br label %83

76:                                               ; preds = %65
  %77 = load ptr, ptr %10, align 8
  %78 = load ptr, ptr %5, align 8
  %79 = load i32, ptr %12, align 4
  %80 = load i32, ptr @hf_ieee80211_s1g_raw_slot_def, align 4
  %81 = load i32, ptr @ett_s1g_raw_slot_def, align 4
  %82 = call ptr @proto_tree_add_bitmask_with_flags(ptr noundef %77, ptr noundef %78, i32 noundef %79, i32 noundef %80, i32 noundef %81, ptr noundef @s1g_slot_def_11_bit, i32 noundef -2147483648, i32 noundef 1)
  br label %83

83:                                               ; preds = %76, %69
  %84 = load i32, ptr %12, align 4
  %85 = add i32 %84, 2
  store i32 %85, ptr %12, align 4
  %86 = load i8, ptr %15, align 1
  %87 = zext i8 %86 to i32
  %88 = and i32 %87, 16
  %89 = icmp ne i32 %88, 0
  br i1 %89, label %90, label %98

90:                                               ; preds = %83
  %91 = load ptr, ptr %10, align 8
  %92 = load i32, ptr @hf_ieee80211_s1g_raw_start_time, align 4
  %93 = load ptr, ptr %5, align 8
  %94 = load i32, ptr %12, align 4
  %95 = call ptr @proto_tree_add_item(ptr noundef %91, i32 noundef %92, ptr noundef %93, i32 noundef %94, i32 noundef 1, i32 noundef 0)
  %96 = load i32, ptr %12, align 4
  %97 = add i32 %96, 1
  store i32 %97, ptr %12, align 4
  br label %98

98:                                               ; preds = %90, %83
  %99 = load i8, ptr %15, align 1
  %100 = zext i8 %99 to i32
  %101 = and i32 %100, 32
  %102 = icmp ne i32 %101, 0
  br i1 %102, label %103, label %126

103:                                              ; preds = %98
  call void @llvm.lifetime.start.p0(i64 4, ptr %17) #19
  %104 = load ptr, ptr %5, align 8
  %105 = load i32, ptr %12, align 4
  %106 = call i32 @tvb_get_letoh24(ptr noundef %104, i32 noundef %105)
  store i32 %106, ptr %17, align 4
  %107 = load i32, ptr %17, align 4
  %108 = icmp eq i32 %107, 0
  br i1 %108, label %109, label %116

109:                                              ; preds = %103
  call void @llvm.lifetime.start.p0(i64 8, ptr %18) #19
  store ptr null, ptr %18, align 8
  %110 = load ptr, ptr %10, align 8
  %111 = load i32, ptr @hf_ieee80211_s1g_raw_group_subfield, align 4
  %112 = load ptr, ptr %5, align 8
  %113 = load i32, ptr %12, align 4
  %114 = call ptr @proto_tree_add_item(ptr noundef %110, i32 noundef %111, ptr noundef %112, i32 noundef %113, i32 noundef 3, i32 noundef -2147483648)
  store ptr %114, ptr %18, align 8
  %115 = load ptr, ptr %18, align 8
  call void (ptr, ptr, ...) @proto_item_append_text(ptr noundef %115, ptr noundef @.str.10028)
  call void @llvm.lifetime.end.p0(i64 8, ptr %18) #19
  br label %123

116:                                              ; preds = %103
  %117 = load ptr, ptr %10, align 8
  %118 = load ptr, ptr %5, align 8
  %119 = load i32, ptr %12, align 4
  %120 = load i32, ptr @hf_ieee80211_s1g_raw_group_subfield, align 4
  %121 = load i32, ptr @ett_s1g_raw_group_subfield, align 4
  %122 = call ptr @proto_tree_add_bitmask_with_flags(ptr noundef %117, ptr noundef %118, i32 noundef %119, i32 noundef %120, i32 noundef %121, ptr noundef @s1g_raw_group_fields, i32 noundef -2147483648, i32 noundef 1)
  br label %123

123:                                              ; preds = %116, %109
  %124 = load i32, ptr %12, align 4
  %125 = add i32 %124, 3
  store i32 %125, ptr %12, align 4
  call void @llvm.lifetime.end.p0(i64 4, ptr %17) #19
  br label %126

126:                                              ; preds = %123, %98
  %127 = load i8, ptr %15, align 1
  %128 = zext i8 %127 to i32
  %129 = and i32 %128, 64
  %130 = icmp ne i32 %129, 0
  br i1 %130, label %131, label %140

131:                                              ; preds = %126
  %132 = load ptr, ptr %10, align 8
  %133 = load ptr, ptr %5, align 8
  %134 = load i32, ptr %12, align 4
  %135 = load i32, ptr @hf_ieee80211_s1g_raw_channel_indication, align 4
  %136 = load i32, ptr @ett_s1g_raw_channel_indication, align 4
  %137 = call ptr @proto_tree_add_bitmask_with_flags(ptr noundef %132, ptr noundef %133, i32 noundef %134, i32 noundef %135, i32 noundef %136, ptr noundef @s1g_raw_channel_indication_fields, i32 noundef -2147483648, i32 noundef 1)
  %138 = load i32, ptr %12, align 4
  %139 = add i32 %138, 2
  store i32 %139, ptr %12, align 4
  br label %140

140:                                              ; preds = %131, %126
  %141 = load i8, ptr %15, align 1
  %142 = zext i8 %141 to i32
  %143 = and i32 %142, 128
  %144 = icmp ne i32 %143, 0
  br i1 %144, label %145, label %167

145:                                              ; preds = %140
  %146 = load ptr, ptr %10, align 8
  %147 = load i32, ptr @hf_ieee80211_s1g_raw_praw_periodicity, align 4
  %148 = load ptr, ptr %5, align 8
  %149 = load i32, ptr %12, align 4
  %150 = call ptr @proto_tree_add_item(ptr noundef %146, i32 noundef %147, ptr noundef %148, i32 noundef %149, i32 noundef 1, i32 noundef 0)
  %151 = load i32, ptr %12, align 4
  %152 = add i32 %151, 1
  store i32 %152, ptr %12, align 4
  %153 = load ptr, ptr %10, align 8
  %154 = load i32, ptr @hf_ieee80211_s1g_raw_praw_validity, align 4
  %155 = load ptr, ptr %5, align 8
  %156 = load i32, ptr %12, align 4
  %157 = call ptr @proto_tree_add_item(ptr noundef %153, i32 noundef %154, ptr noundef %155, i32 noundef %156, i32 noundef 1, i32 noundef 0)
  %158 = load i32, ptr %12, align 4
  %159 = add i32 %158, 1
  store i32 %159, ptr %12, align 4
  %160 = load ptr, ptr %10, align 8
  %161 = load i32, ptr @hf_ieee80211_s1g_raw_praw_start_offset, align 4
  %162 = load ptr, ptr %5, align 8
  %163 = load i32, ptr %12, align 4
  %164 = call ptr @proto_tree_add_item(ptr noundef %160, i32 noundef %161, ptr noundef %162, i32 noundef %163, i32 noundef 1, i32 noundef 0)
  %165 = load i32, ptr %12, align 4
  %166 = add i32 %165, 1
  store i32 %166, ptr %12, align 4
  br label %167

167:                                              ; preds = %145, %140
  %168 = load i32, ptr %13, align 4
  %169 = add i32 %168, 1
  store i32 %169, ptr %13, align 4
  call void @llvm.lifetime.end.p0(i64 1, ptr %16) #19
  call void @llvm.lifetime.end.p0(i64 1, ptr %15) #19
  br label %30, !llvm.loop !40

170:                                              ; preds = %30
  %171 = load i32, ptr %12, align 4
  call void @llvm.lifetime.end.p0(i64 1, ptr %14) #19
  call void @llvm.lifetime.end.p0(i64 4, ptr %13) #19
  call void @llvm.lifetime.end.p0(i64 4, ptr %12) #19
  call void @llvm.lifetime.end.p0(i64 8, ptr %11) #19
  call void @llvm.lifetime.end.p0(i64 8, ptr %10) #19
  call void @llvm.lifetime.end.p0(i64 8, ptr %9) #19
  ret i32 %171
}