; Function Attrs: null_pointer_is_valid sspstrong uwtable
define internal noundef i32 @dissect_rps(ptr noundef %0, ptr readnone captures(none) %1, ptr noundef %2, ptr readnone captures(none) %3) #2 {
  %5 = alloca ptr, align 8
  call void @llvm.lifetime.start.p0(i64 8, ptr nonnull %5) #24
  %6 = tail call i32 @tvb_reported_length_remaining(ptr noundef %0, i32 noundef 0)
  %7 = and i32 %6, 255
  %8 = load i32, ptr @ett_s1g_raw_assignment, align 4
  %9 = tail call ptr @proto_tree_add_subtree(ptr noundef %2, ptr noundef %0, i32 noundef 0, i32 noundef %7, i32 noundef %8, ptr noundef null, ptr noundef nonnull @.str.10026)
  %10 = tail call i32 @tvb_reported_length_remaining(ptr noundef %0, i32 noundef 0)
  %11 = icmp sgt i32 %10, 0
  br i1 %11, label %.lr.ph, label %._crit_edge

.lr.ph:                                           ; preds = %4, %66
  %.072 = phi i32 [ %.4, %66 ], [ 0, %4 ]
  %.06771 = phi i32 [ %67, %66 ], [ 0, %4 ]
  %12 = load i32, ptr @ett_s1g_raw_assn_tree, align 4
  %13 = call ptr (ptr, ptr, i32, i32, i32, ptr, ptr, ...) @proto_tree_add_subtree_format(ptr noundef %9, ptr noundef %0, i32 noundef %.072, i32 noundef -1, i32 noundef %12, ptr noundef nonnull %5, ptr noundef nonnull @.str.10027, i32 noundef %.06771)
  %14 = call zeroext i8 @tvb_get_uint8(ptr noundef %0, i32 noundef %.072)
  %15 = add i32 %.072, 1
  %16 = call zeroext i8 @tvb_get_uint8(ptr noundef %0, i32 noundef %15)
  %17 = zext i8 %14 to i32
  %18 = and i8 %14, 3
  store i8 %18, ptr @global_s1g_raw_type, align 1
  %19 = load i32, ptr @hf_ieee80211_s1g_raw_control, align 4
  %20 = load i32, ptr @ett_s1g_raw_control, align 4
  %21 = call ptr @proto_tree_add_bitmask_with_flags(ptr noundef %13, ptr noundef %0, i32 noundef %.072, i32 noundef %19, i32 noundef %20, ptr noundef nonnull @s1g_raw_control_headers, i32 noundef -2147483648, i32 noundef 1)
  %22 = and i8 %16, 1
  %23 = icmp eq i8 %22, 0
  %24 = load i8, ptr @global_s1g_raw_type, align 1
  %25 = icmp eq i8 %24, 1
  %or.cond = select i1 %23, i1 true, i1 %25
  %26 = load i32, ptr @hf_ieee80211_s1g_raw_slot_def, align 4
  %27 = load i32, ptr @ett_s1g_raw_slot_def, align 4
  %s1g_slot_def_8_bit.s1g_slot_def_11_bit = select i1 %or.cond, ptr @s1g_slot_def_8_bit, ptr @s1g_slot_def_11_bit
  %28 = call ptr @proto_tree_add_bitmask_with_flags(ptr noundef %13, ptr noundef %0, i32 noundef %15, i32 noundef %26, i32 noundef %27, ptr noundef nonnull %s1g_slot_def_8_bit.s1g_slot_def_11_bit, i32 noundef -2147483648, i32 noundef 1)
  %29 = add i32 %.072, 3
  %30 = and i32 %17, 16
  %.not = icmp eq i32 %30, 0
  br i1 %.not, label %35, label %31

31:                                               ; preds = %.lr.ph
  %32 = load i32, ptr @hf_ieee80211_s1g_raw_start_time, align 4
  %33 = call ptr @proto_tree_add_item(ptr noundef %13, i32 noundef %32, ptr noundef %0, i32 noundef %29, i32 noundef 1, i32 noundef 0)
  %34 = add i32 %.072, 4
  br label %35

35:                                               ; preds = %31, %.lr.ph
  %.1 = phi i32 [ %34, %31 ], [ %29, %.lr.ph ]
  %36 = and i32 %17, 32
  %.not68 = icmp eq i32 %36, 0
  br i1 %.not68, label %48, label %37

37:                                               ; preds = %35
  %38 = call i32 @tvb_get_letoh24(ptr noundef %0, i32 noundef %.1)
  %39 = icmp eq i32 %38, 0
  %40 = load i32, ptr @hf_ieee80211_s1g_raw_group_subfield, align 4
  br i1 %39, label %41, label %43

41:                                               ; preds = %37
  %42 = call ptr @proto_tree_add_item(ptr noundef %13, i32 noundef %40, ptr noundef %0, i32 noundef %.1, i32 noundef 3, i32 noundef -2147483648)
  call void (ptr, ptr, ...) @proto_item_append_text(ptr noundef %42, ptr noundef nonnull @.str.10028)
  br label %46

43:                                               ; preds = %37
  %44 = load i32, ptr @ett_s1g_raw_group_subfield, align 4
  %45 = call ptr @proto_tree_add_bitmask_with_flags(ptr noundef %13, ptr noundef %0, i32 noundef %.1, i32 noundef %40, i32 noundef %44, ptr noundef nonnull @s1g_raw_group_fields, i32 noundef -2147483648, i32 noundef 1)
  br label %46

46:                                               ; preds = %43, %41
  %47 = add i32 %.1, 3
  br label %48

48:                                               ; preds = %46, %35
  %.2 = phi i32 [ %47, %46 ], [ %.1, %35 ]
  %49 = and i32 %17, 64
  %.not69 = icmp eq i32 %49, 0
  br i1 %.not69, label %55, label %50

50:                                               ; preds = %48
  %51 = load i32, ptr @hf_ieee80211_s1g_raw_channel_indication, align 4
  %52 = load i32, ptr @ett_s1g_raw_channel_indication, align 4
  %53 = call ptr @proto_tree_add_bitmask_with_flags(ptr noundef %13, ptr noundef %0, i32 noundef %.2, i32 noundef %51, i32 noundef %52, ptr noundef nonnull @s1g_raw_channel_indication_fields, i32 noundef -2147483648, i32 noundef 1)
  %54 = add i32 %.2, 2
  br label %55

55:                                               ; preds = %50, %48
  %.3 = phi i32 [ %54, %50 ], [ %.2, %48 ]
  %.not70 = icmp sgt i8 %14, -1
  br i1 %.not70, label %66, label %56

56:                                               ; preds = %55
  %57 = load i32, ptr @hf_ieee80211_s1g_raw_praw_periodicity, align 4
  %58 = call ptr @proto_tree_add_item(ptr noundef %13, i32 noundef %57, ptr noundef %0, i32 noundef %.3, i32 noundef 1, i32 noundef 0)
  %59 = add i32 %.3, 1
  %60 = load i32, ptr @hf_ieee80211_s1g_raw_praw_validity, align 4
  %61 = call ptr @proto_tree_add_item(ptr noundef %13, i32 noundef %60, ptr noundef %0, i32 noundef %59, i32 noundef 1, i32 noundef 0)
  %62 = add i32 %.3, 2
  %63 = load i32, ptr @hf_ieee80211_s1g_raw_praw_start_offset, align 4
  %64 = call ptr @proto_tree_add_item(ptr noundef %13, i32 noundef %63, ptr noundef %0, i32 noundef %62, i32 noundef 1, i32 noundef 0)
  %65 = add i32 %.3, 3
  br label %66

66:                                               ; preds = %56, %55
  %.4 = phi i32 [ %65, %56 ], [ %.3, %55 ]
  %67 = add i32 %.06771, 1
  %68 = call i32 @tvb_reported_length_remaining(ptr noundef %0, i32 noundef %.4)
  %69 = icmp sgt i32 %68, 0
  br i1 %69, label %.lr.ph, label %._crit_edge, !llvm.loop !120

._crit_edge:                                      ; preds = %66, %4
  %.0.lcssa = phi i32 [ 0, %4 ], [ %.4, %66 ]
  call void @llvm.lifetime.end.p0(i64 8, ptr nonnull %5) #24
  ret i32 %.0.lcssa
}